target datalayout = "e-m:e-p270:32:32-p271:32:32-p272:64:64-i64:64-i128:128-f80:128-n8:16:32:64-S128"
target triple = "x86_64-pc-linux-gnu"

%struct._zend_executor_globals = type { %struct._zval_struct, %struct._zval_struct, [32 x ptr], ptr, ptr, %struct._zend_array, %struct._zend_array, ptr, i32, i32, ptr, ptr, ptr, ptr, ptr, ptr, i64, ptr, ptr, i32, i32, i64, i32, i32, i32, i8, i8, %struct.zend_atomic_bool_s, %struct.zend_atomic_bool_s, ptr, i64, ptr, ptr, %struct._zend_array, %struct._zend_array, i32, i8, %struct._zval_struct, %struct._zval_struct, %struct._zend_stack, %struct._zend_stack, %struct._zend_stack, ptr, i32, i32, i64, ptr, ptr, ptr, %struct._zend_objects_store, ptr, ptr, ptr, [3 x %struct._zend_op], ptr, i8, i8, i64, i32, i32, ptr, [16 x %struct._HashTableIterator], ptr, %union._zend_function, %struct._zend_op, %struct._zend_array, i64, %struct.zend_get_gc_buffer, ptr, ptr, ptr, i64, i8, i32, ptr, ptr, i64, %struct._zend_call_stack, i64, i64, [6 x ptr] }
%struct.zend_atomic_bool_s = type { i8 }
%struct._zval_struct = type { %union._zend_value, %union.anon, %union.anon.2 }
%union._zend_value = type { i64 }
%union.anon = type { i32 }
%union.anon.2 = type { i32 }
%struct._zend_stack = type { i32, i32, i32, ptr }
%struct._zend_objects_store = type { ptr, i32, i32, i32 }
%struct._HashTableIterator = type { ptr, i32, i32 }
%union._zend_function = type { %struct._zend_op_array }
%struct._zend_op_array = type { i8, [3 x i8], i32, ptr, ptr, ptr, i32, i32, ptr, ptr, ptr, ptr, i32, i32, i32, i32, ptr, ptr, ptr, ptr, ptr, i32, i32, ptr, ptr, ptr, i32, i32, i32, i32, ptr, ptr, [6 x ptr] }
%struct._zend_op = type { ptr, %union._znode_op, %union._znode_op, %union._znode_op, i32, i32, i8, i8, i8, i8 }
%union._znode_op = type { i32 }
%struct._zend_array = type { %struct._zend_refcounted_h, %union.anon.4, i32, %union.anon.6, i32, i32, i32, i32, i64, ptr }
%struct._zend_refcounted_h = type { i32, %union.anon.3 }
%union.anon.3 = type { i32 }
%union.anon.4 = type { i32 }
%union.anon.6 = type { ptr }
%struct.zend_get_gc_buffer = type { ptr, ptr, ptr }
%struct._zend_call_stack = type { ptr, i64 }
%struct._zend_execute_data = type { ptr, ptr, ptr, ptr, %struct._zval_struct, ptr, ptr, ptr, ptr }
%struct._zend_object = type { %struct._zend_refcounted_h, i32, ptr, ptr, ptr, [1 x %struct._zval_struct] }
%struct._spl_recursive_it_object = type { ptr, i32, i32, i32, i32, i8, ptr, ptr, ptr, ptr, ptr, ptr, ptr, ptr, [6 x ptr], [1 x ptr], %struct._zend_object }

@executor_globals = external global %struct._zend_executor_globals, align 8
@.str.4 = private unnamed_addr constant [3 x i8] c"|l\00", align 1
@.str.5 = private unnamed_addr constant [36 x i8] c"must be greater than or equal to -1\00", align 1

; Function Attrs: nounwind uwtable
define internal ptr @spl_recursive_it_from_obj(ptr noundef %0) #0 {
  %2 = alloca ptr, align 8
  store ptr %0, ptr %2, align 8
  %3 = load ptr, ptr %2, align 8
  %4 = getelementptr inbounds i8, ptr %3, i64 -152
  ret ptr %4
}

; Function Attrs: nounwind uwtable
define hidden void @zim_RecursiveIteratorIterator_setMaxDepth(ptr noundef %0, ptr noundef %1) #0 {
  %3 = alloca ptr, align 8
  %4 = alloca ptr, align 8
  %5 = alloca ptr, align 8
  %6 = alloca i64, align 8
  store ptr %0, ptr %3, align 8
  store ptr %1, ptr %4, align 8
  %7 = load ptr, ptr %3, align 8
  %8 = getelementptr inbounds %struct._zend_execute_data, ptr %7, i32 0, i32 4
  %9 = getelementptr inbounds %struct._zval_struct, ptr %8, i32 0, i32 0
  %10 = load ptr, ptr %9, align 8
  %11 = call ptr @spl_recursive_it_from_obj(ptr noundef %10)
  store ptr %11, ptr %5, align 8
  store i64 -1, ptr %6, align 8
  %12 = load ptr, ptr %3, align 8
  %13 = getelementptr inbounds %struct._zend_execute_data, ptr %12, i32 0, i32 4
  %14 = getelementptr inbounds %struct._zval_struct, ptr %13, i32 0, i32 2
  %15 = load i32, ptr %14, align 4
  %16 = call i32 (i32, ptr, ...) @zend_parse_parameters(i32 noundef %15, ptr noundef @.str.4, ptr noundef %6)
  %17 = icmp eq i32 %16, -1
  br i1 %17, label %18, label %23

18:                                               ; preds = %2
  br label %19

19:                                               ; preds = %18
  %20 = load ptr, ptr getelementptr inbounds (%struct._zend_executor_globals, ptr @executor_globals, i32 0, i32 50), align 8
  %21 = icmp ne ptr %20, null
  call void @llvm.assume(i1 %21)
  br label %41

22:                                               ; No predecessors!
  br label %23

23:                                               ; preds = %22, %2
  %24 = load i64, ptr %6, align 8
  %25 = icmp slt i64 %24, -1
  br i1 %25, label %26, label %31

26:                                               ; preds = %23
  call void (i32, ptr, ...) @zend_argument_value_error(i32 noundef 1, ptr noundef @.str.5)
  br label %27

27:                                               ; preds = %26
  %28 = load ptr, ptr getelementptr inbounds (%struct._zend_executor_globals, ptr @executor_globals, i32 0, i32 50), align 8
  %29 = icmp ne ptr %28, null
  call void @llvm.assume(i1 %29)
  br label %41

30:                                               ; No predecessors!
  br label %36

31:                                               ; preds = %23
  %32 = load i64, ptr %6, align 8
  %33 = icmp sgt i64 %32, 2147483647
  br i1 %33, label %34, label %35

34:                                               ; preds = %31
  store i64 2147483647, ptr %6, align 8
  br label %35

35:                                               ; preds = %34, %31
  br label %36

36:                                               ; preds = %35, %30
  %37 = load i64, ptr %6, align 8
  %38 = trunc i64 %37 to i32
  %39 = load ptr, ptr %5, align 8
  %40 = getelementptr inbounds %struct._spl_recursive_it_object, ptr %39, i32 0, i32 4
  store i32 %38, ptr %40, align 4
  br label %41

41:                                               ; preds = %36, %27, %19
  ret void
}